; ModuleID = 'source-C-CXX/29/1606.cpp'
source_filename = "source-C-CXX/29/1606.cpp"
target datalayout = "e-m:e-p270:32:32-p271:32:32-p272:64:64-i64:64-f80:128-n8:16:32:64-S128"
target triple = "x86_64-pc-linux-gnu"

%"class.std::ios_base::Init" = type { i8 }
%"class.std::basic_istream" = type { i32 (...)**, i64, %"class.std::basic_ios" }
%"class.std::basic_ios" = type { %"class.std::ios_base", %"class.std::basic_ostream"*, i8, i8, %"class.std::basic_streambuf"*, %"class.std::ctype"*, %"class.std::num_put"*, %"class.std::num_get"* }
%"class.std::ios_base" = type { i32 (...)**, i64, i64, i32, i32, i32, %"struct.std::ios_base::_Callback_list"*, %"struct.std::ios_base::_Words", [8 x %"struct.std::ios_base::_Words"], i32, %"struct.std::ios_base::_Words"*, %"class.std::locale" }
%"struct.std::ios_base::_Callback_list" = type { %"struct.std::ios_base::_Callback_list"*, void (i32, %"class.std::ios_base"*, i32)*, i32, i32 }
%"struct.std::ios_base::_Words" = type { i8*, i64 }
%"class.std::locale" = type { %"class.std::locale::_Impl"* }
%"class.std::locale::_Impl" = type { i32, %"class.std::locale::facet"**, i64, %"class.std::locale::facet"**, i8** }
%"class.std::locale::facet" = type <{ i32 (...)**, i32, [4 x i8] }>
%"class.std::basic_ostream" = type { i32 (...)**, %"class.std::basic_ios" }
%"class.std::basic_streambuf" = type { i32 (...)**, i8*, i8*, i8*, i8*, i8*, i8*, %"class.std::locale" }
%"class.std::ctype" = type <{ %"class.std::locale::facet.base", [4 x i8], %struct.__locale_struct*, i8, [7 x i8], i32*, i32*, i16*, i8, [256 x i8], [256 x i8], i8, [6 x i8] }>
%"class.std::locale::facet.base" = type <{ i32 (...)**, i32 }>
%struct.__locale_struct = type { [13 x %struct.__locale_data*], i16*, i32*, i32*, [13 x i8*] }
%struct.__locale_data = type opaque
%"class.std::num_put" = type { %"class.std::locale::facet.base", [4 x i8] }
%"class.std::num_get" = type { %"class.std::locale::facet.base", [4 x i8] }

@_ZStL8__ioinit = internal global %"class.std::ios_base::Init" zeroinitializer, align 1
@__dso_handle = external hidden global i8
@_ZSt3cin = external global %"class.std::basic_istream", align 8
@_ZSt4cout = external global %"class.std::basic_ostream", align 8
@llvm.global_ctors = appending global [1 x { i32, void ()*, i8* }] [{ i32, void ()*, i8* } { i32 65535, void ()* @_GLOBAL__sub_I_1606.cpp, i8* null }]

declare void @_ZNSt8ios_base4InitC1Ev(%"class.std::ios_base::Init"* nonnull align 1 dereferenceable(1)) unnamed_addr #0

; Function Attrs: nounwind
declare void @_ZNSt8ios_base4InitD1Ev(%"class.std::ios_base::Init"* nonnull align 1 dereferenceable(1)) unnamed_addr #1

; Function Attrs: nofree nounwind
declare i32 @__cxa_atexit(void (i8*)*, i8*, i8*) local_unnamed_addr #2

; Function Attrs: mustprogress norecurse sspstrong uwtable
define dso_local i32 @main() local_unnamed_addr #3 {
  %1 = alloca i32, align 4
  %2 = bitcast i32* %1 to i8*
  call void @llvm.lifetime.start.p0i8(i64 4, i8* nonnull %2) #7
  %3 = call nonnull align 8 dereferenceable(16) %"class.std::basic_istream"* @_ZNSirsERi(%"class.std::basic_istream"* nonnull align 8 dereferenceable(16) @_ZSt3cin, i32* nonnull align 4 dereferenceable(4) %1)
  %4 = load i32, i32* %1, align 4, !tbaa !5
  %5 = icmp slt i32 %4, 1
  br i1 %5, label %51, label %6

6:                                                ; preds = %0
  %7 = icmp ult i32 %4, 8
  br i1 %7, label %48, label %8

8:                                                ; preds = %6
  %9 = and i32 %4, -8
  %10 = or i32 %9, 1
  br label %11

11:                                               ; preds = %11, %8
  %12 = phi i32 [ 0, %8 ], [ %41, %11 ]
  %13 = phi <4 x i32> [ <i32 1, i32 2, i32 3, i32 4>, %8 ], [ %42, %11 ]
  %14 = phi <4 x i32> [ zeroinitializer, %8 ], [ %38, %11 ]
  %15 = phi <4 x i32> [ zeroinitializer, %8 ], [ %40, %11 ]
  %16 = add <4 x i32> %13, <i32 4, i32 4, i32 4, i32 4>
  %17 = urem <4 x i32> %13, <i32 7, i32 7, i32 7, i32 7>
  %18 = urem <4 x i32> %16, <i32 7, i32 7, i32 7, i32 7>
  %19 = icmp ne <4 x i32> %17, zeroinitializer
  %20 = icmp ne <4 x i32> %18, zeroinitializer
  %21 = add nsw <4 x i32> %13, <i32 -7, i32 -7, i32 -7, i32 -7>
  %22 = add <4 x i32> %13, <i32 -3, i32 -3, i32 -3, i32 -3>
  %23 = srem <4 x i32> %21, <i32 10, i32 10, i32 10, i32 10>
  %24 = srem <4 x i32> %22, <i32 10, i32 10, i32 10, i32 10>
  %25 = icmp ne <4 x i32> %23, zeroinitializer
  %26 = icmp ne <4 x i32> %24, zeroinitializer
  %27 = add nsw <4 x i32> %13, <i32 -70, i32 -70, i32 -70, i32 -70>
  %28 = add <4 x i32> %13, <i32 -66, i32 -66, i32 -66, i32 -66>
  %29 = icmp ugt <4 x i32> %27, <i32 9, i32 9, i32 9, i32 9>
  %30 = icmp ugt <4 x i32> %28, <i32 9, i32 9, i32 9, i32 9>
  %31 = mul nsw <4 x i32> %13, %13
  %32 = mul nsw <4 x i32> %16, %16
  %33 = select <4 x i1> %19, <4 x i1> %25, <4 x i1> zeroinitializer
  %34 = select <4 x i1> %33, <4 x i1> %29, <4 x i1> zeroinitializer
  %35 = select <4 x i1> %20, <4 x i1> %26, <4 x i1> zeroinitializer
  %36 = select <4 x i1> %35, <4 x i1> %30, <4 x i1> zeroinitializer
  %37 = select <4 x i1> %34, <4 x i32> %31, <4 x i32> zeroinitializer
  %38 = add <4 x i32> %14, %37
  %39 = select <4 x i1> %36, <4 x i32> %32, <4 x i32> zeroinitializer
  %40 = add <4 x i32> %15, %39
  %41 = add nuw i32 %12, 8
  %42 = add <4 x i32> %13, <i32 8, i32 8, i32 8, i32 8>
  %43 = icmp eq i32 %41, %9
  br i1 %43, label %44, label %11, !llvm.loop !9

44:                                               ; preds = %11
  %45 = add <4 x i32> %40, %38
  %46 = call i32 @llvm.vector.reduce.add.v4i32(<4 x i32> %45)
  %47 = icmp eq i32 %4, %9
  br i1 %47, label %51, label %48

48:                                               ; preds = %6, %44
  %49 = phi i32 [ 1, %6 ], [ %10, %44 ]
  %50 = phi i32 [ 0, %6 ], [ %46, %44 ]
  br label %54

51:                                               ; preds = %69, %44, %0
  %52 = phi i32 [ 0, %0 ], [ %46, %44 ], [ %70, %69 ]
  %53 = call nonnull align 8 dereferenceable(8) %"class.std::basic_ostream"* @_ZNSolsEi(%"class.std::basic_ostream"* nonnull align 8 dereferenceable(8) @_ZSt4cout, i32 %52)
  call void @llvm.lifetime.end.p0i8(i64 4, i8* nonnull %2) #7
  ret i32 0

54:                                               ; preds = %48, %69
  %55 = phi i32 [ %71, %69 ], [ %49, %48 ]
  %56 = phi i32 [ %70, %69 ], [ %50, %48 ]
  %57 = urem i32 %55, 7
  %58 = icmp eq i32 %57, 0
  br i1 %58, label %69, label %59

59:                                               ; preds = %54
  %60 = add nsw i32 %55, -7
  %61 = srem i32 %60, 10
  %62 = icmp eq i32 %61, 0
  %63 = add nsw i32 %55, -70
  %64 = icmp ult i32 %63, 10
  %65 = select i1 %62, i1 true, i1 %64
  br i1 %65, label %69, label %66

66:                                               ; preds = %59
  %67 = mul nsw i32 %55, %55
  %68 = add nsw i32 %67, %56
  br label %69

69:                                               ; preds = %59, %54, %66
  %70 = phi i32 [ %56, %54 ], [ %56, %59 ], [ %68, %66 ]
  %71 = add nuw i32 %55, 1
  %72 = icmp eq i32 %55, %4
  br i1 %72, label %51, label %54, !llvm.loop !12
}

; Function Attrs: argmemonly mustprogress nofree nosync nounwind willreturn
declare void @llvm.lifetime.start.p0i8(i64 immarg, i8* nocapture) #4

declare nonnull align 8 dereferenceable(16) %"class.std::basic_istream"* @_ZNSirsERi(%"class.std::basic_istream"* nonnull align 8 dereferenceable(16), i32* nonnull align 4 dereferenceable(4)) local_unnamed_addr #0

; Function Attrs: argmemonly mustprogress nofree nosync nounwind willreturn
declare void @llvm.lifetime.end.p0i8(i64 immarg, i8* nocapture) #4

declare nonnull align 8 dereferenceable(8) %"class.std::basic_ostream"* @_ZNSolsEi(%"class.std::basic_ostream"* nonnull align 8 dereferenceable(8), i32) local_unnamed_addr #0

; Function Attrs: sspstrong uwtable
define internal void @_GLOBAL__sub_I_1606.cpp() #5 section ".text.startup" {
  tail call void @_ZNSt8ios_base4InitC1Ev(%"class.std::ios_base::Init"* nonnull align 1 dereferenceable(1) @_ZStL8__ioinit)
  %1 = tail call i32 @__cxa_atexit(void (i8*)* bitcast (void (%"class.std::ios_base::Init"*)* @_ZNSt8ios_base4InitD1Ev to void (i8*)*), i8* getelementptr inbounds (%"class.std::ios_base::Init", %"class.std::ios_base::Init"* @_ZStL8__ioinit, i64 0, i32 0), i8* nonnull @__dso_handle) #7
  ret void
}

; Function Attrs: nofree nosync nounwind readnone willreturn
declare i32 @llvm.vector.reduce.add.v4i32(<4 x i32>) #6


!llvm.module.flags = !{!0, !1, !2, !3}
!llvm.ident = !{!4}

!0 = !{i32 1, !"wchar_size", i32 4}
!1 = !{i32 7, !"PIC Level", i32 2}
!2 = !{i32 7, !"PIE Level", i32 2}
!3 = !{i32 7, !"uwtable", i32 1}
!4 = !{!"clang version 13.0.0"}
!5 = !{!6, !6, i64 0}
!6 = !{!"int", !7, i64 0}
!7 = !{!"omnipotent char", !8, i64 0}
!8 = !{!"Simple C++ TBAA"}
!9 = distinct !{!9, !10, !11}
!10 = !{!"llvm.loop.mustprogress"}
!11 = !{!"llvm.loop.isvectorized", i32 1}
!12 = distinct !{!12, !10, !13, !11}
!13 = !{!"llvm.loop.unroll.runtime.disable"}
